target datalayout = "e-m:e-p270:32:32-p271:32:32-p272:64:64-i64:64-i128:128-f80:128-n8:16:32:64-S128"
target triple = "x86_64-pc-linux-gnu"

%struct.mi_commit_mask_s = type { [8 x i64] }

; Function Attrs: nounwind uwtable
define hidden i64 @_mi_commit_mask_next_run(ptr noundef %0, ptr noundef %1) #0 {
  %3 = alloca i64, align 8
  %4 = alloca ptr, align 8
  %5 = alloca ptr, align 8
  %6 = alloca i64, align 8
  %7 = alloca i64, align 8
  %8 = alloca i64, align 8
  %9 = alloca i32, align 4
  %10 = alloca i64, align 8
  store ptr %0, ptr %4, align 8, !tbaa !3
  store ptr %1, ptr %5, align 8, !tbaa !13
  call void @llvm.lifetime.start.p0(i64 8, ptr %6) #8
  %11 = load ptr, ptr %5, align 8, !tbaa !13
  %12 = load i64, ptr %11, align 8, !tbaa !8
  %13 = udiv i64 %12, 64
  store i64 %13, ptr %6, align 8, !tbaa !8
  call void @llvm.lifetime.start.p0(i64 8, ptr %7) #8
  %14 = load ptr, ptr %5, align 8, !tbaa !13
  %15 = load i64, ptr %14, align 8, !tbaa !8
  %16 = urem i64 %15, 64
  store i64 %16, ptr %7, align 8, !tbaa !8
  call void @llvm.lifetime.start.p0(i64 8, ptr %8) #8
  store i64 0, ptr %8, align 8, !tbaa !8
  br label %17

17:                                               ; preds = %42, %2
  %18 = load i64, ptr %6, align 8, !tbaa !8
  %19 = icmp ult i64 %18, 8
  br i1 %19, label %20, label %45

20:                                               ; preds = %17
  %21 = load ptr, ptr %4, align 8, !tbaa !3
  %22 = getelementptr inbounds nuw %struct.mi_commit_mask_s, ptr %21, i32 0, i32 0
  %23 = load i64, ptr %6, align 8, !tbaa !8
  %24 = getelementptr inbounds nuw [8 x i64], ptr %22, i64 0, i64 %23
  %25 = load i64, ptr %24, align 8, !tbaa !8
  store i64 %25, ptr %8, align 8, !tbaa !8
  %26 = load i64, ptr %7, align 8, !tbaa !8
  %27 = load i64, ptr %8, align 8, !tbaa !8
  %28 = lshr i64 %27, %26
  store i64 %28, ptr %8, align 8, !tbaa !8
  %29 = load i64, ptr %8, align 8, !tbaa !8
  %30 = icmp ne i64 %29, 0
  br i1 %30, label %31, label %42

31:                                               ; preds = %20
  br label %32

32:                                               ; preds = %36, %31
  %33 = load i64, ptr %8, align 8, !tbaa !8
  %34 = and i64 %33, 1
  %35 = icmp eq i64 %34, 0
  br i1 %35, label %36, label %41

36:                                               ; preds = %32
  %37 = load i64, ptr %8, align 8, !tbaa !8
  %38 = lshr i64 %37, 1
  store i64 %38, ptr %8, align 8, !tbaa !8
  %39 = load i64, ptr %7, align 8, !tbaa !8
  %40 = add i64 %39, 1
  store i64 %40, ptr %7, align 8, !tbaa !8
  br label %32, !llvm.loop !15

41:                                               ; preds = %32
  br label %45

42:                                               ; preds = %20
  %43 = load i64, ptr %6, align 8, !tbaa !8
  %44 = add i64 %43, 1
  store i64 %44, ptr %6, align 8, !tbaa !8
  store i64 0, ptr %7, align 8, !tbaa !8
  br label %17, !llvm.loop !16

45:                                               ; preds = %41, %17
  %46 = load i64, ptr %6, align 8, !tbaa !8
  %47 = icmp uge i64 %46, 8
  br i1 %47, label %48, label %50

48:                                               ; preds = %45
  %49 = load ptr, ptr %5, align 8, !tbaa !13
  store i64 512, ptr %49, align 8, !tbaa !8
  store i64 0, ptr %3, align 8
  store i32 1, ptr %9, align 4
  br label %92

50:                                               ; preds = %45
  call void @llvm.lifetime.start.p0(i64 8, ptr %10) #8
  store i64 0, ptr %10, align 8, !tbaa !8
  %51 = load i64, ptr %6, align 8, !tbaa !8
  %52 = mul i64 %51, 64
  %53 = load i64, ptr %7, align 8, !tbaa !8
  %54 = add i64 %52, %53
  %55 = load ptr, ptr %5, align 8, !tbaa !13
  store i64 %54, ptr %55, align 8, !tbaa !8
  br label %56

56:                                               ; preds = %86, %50
  br label %57

57:                                               ; preds = %62, %56
  %58 = load i64, ptr %10, align 8, !tbaa !8
  %59 = add i64 %58, 1
  store i64 %59, ptr %10, align 8, !tbaa !8
  %60 = load i64, ptr %8, align 8, !tbaa !8
  %61 = lshr i64 %60, 1
  store i64 %61, ptr %8, align 8, !tbaa !8
  br label %62

62:                                               ; preds = %57
  %63 = load i64, ptr %8, align 8, !tbaa !8
  %64 = and i64 %63, 1
  %65 = icmp eq i64 %64, 1
  br i1 %65, label %57, label %66, !llvm.loop !17

66:                                               ; preds = %62
  %67 = load ptr, ptr %5, align 8, !tbaa !13
  %68 = load i64, ptr %67, align 8, !tbaa !8
  %69 = load i64, ptr %10, align 8, !tbaa !8
  %70 = add i64 %68, %69
  %71 = urem i64 %70, 64
  %72 = icmp eq i64 %71, 0
  br i1 %72, label %73, label %85

73:                                               ; preds = %66
  %74 = load i64, ptr %6, align 8, !tbaa !8
  %75 = add i64 %74, 1
  store i64 %75, ptr %6, align 8, !tbaa !8
  %76 = load i64, ptr %6, align 8, !tbaa !8
  %77 = icmp uge i64 %76, 8
  br i1 %77, label %78, label %79

78:                                               ; preds = %73
  br label %90

79:                                               ; preds = %73
  %80 = load ptr, ptr %4, align 8, !tbaa !3
  %81 = getelementptr inbounds nuw %struct.mi_commit_mask_s, ptr %80, i32 0, i32 0
  %82 = load i64, ptr %6, align 8, !tbaa !8
  %83 = getelementptr inbounds nuw [8 x i64], ptr %81, i64 0, i64 %82
  %84 = load i64, ptr %83, align 8, !tbaa !8
  store i64 %84, ptr %8, align 8, !tbaa !8
  store i64 0, ptr %7, align 8, !tbaa !8
  br label %85

85:                                               ; preds = %79, %66
  br label %86

86:                                               ; preds = %85
  %87 = load i64, ptr %8, align 8, !tbaa !8
  %88 = and i64 %87, 1
  %89 = icmp eq i64 %88, 1
  br i1 %89, label %56, label %90, !llvm.loop !18

90:                                               ; preds = %86, %78
  %91 = load i64, ptr %10, align 8, !tbaa !8
  store i64 %91, ptr %3, align 8
  store i32 1, ptr %9, align 4
  call void @llvm.lifetime.end.p0(i64 8, ptr %10) #8
  br label %92

92:                                               ; preds = %90, %48
  call void @llvm.lifetime.end.p0(i64 8, ptr %8) #8
  call void @llvm.lifetime.end.p0(i64 8, ptr %7) #8
  call void @llvm.lifetime.end.p0(i64 8, ptr %6) #8
  %93 = load i64, ptr %3, align 8
  ret i64 %93
}